; Function Attrs: nounwind uwtable
define internal void @_jobslist_del(ptr noundef %0) #0 {
  %2 = alloca ptr, align 8
  call void @llvm.lifetime.start.p0(i64 8, ptr nonnull %2) #7
  store ptr %0, ptr %2, align 8
  %3 = getelementptr inbounds nuw i8, ptr %0, i64 8
  tail call void @slurm_xfree(ptr noundef nonnull %3) #7
  call void @slurm_xfree(ptr noundef nonnull %2) #7
  call void @llvm.lifetime.end.p0(i64 8, ptr nonnull %2) #7
  ret void
}